target datalayout = "e-m:e-p270:32:32-p271:32:32-p272:64:64-i64:64-i128:128-f80:128-n8:16:32:64-S128"
target triple = "x86_64-pc-linux-gnu"

%struct.PgStat_KindInfo = type { i8, i32, i32, i32, i32, i32, i32, ptr, ptr, ptr, ptr, ptr, ptr, ptr, ptr, ptr, ptr, ptr, ptr }

@.str.2 = private unnamed_addr constant [9 x i8] c"pgstat.c\00", align 1
@TopMemoryContext = external global ptr, align 8
@pgstat_kind_custom_infos = internal global ptr null, align 8
@.str.7 = private unnamed_addr constant [45 x i8] c"custom cumulative statistics name is invalid\00", align 1
@.str.8 = private unnamed_addr constant [63 x i8] c"Provide a non-empty name for the custom cumulative statistics.\00", align 1
@__func__.pgstat_register_kind = private unnamed_addr constant [21 x i8] c"pgstat_register_kind\00", align 1
@.str.9 = private unnamed_addr constant [51 x i8] c"custom cumulative statistics ID %u is out of range\00", align 1
@.str.10 = private unnamed_addr constant [61 x i8] c"Provide a custom cumulative statistics ID between %u and %u.\00", align 1
@process_shared_preload_libraries_in_progress = external global i8, align 1
@.str.11 = private unnamed_addr constant [64 x i8] c"failed to register custom cumulative statistics \22%s\22 with ID %u\00", align 1
@.str.12 = private unnamed_addr constant [106 x i8] c"Custom cumulative statistics must be registered while initializing modules in \22shared_preload_libraries\22.\00", align 1
@.str.13 = private unnamed_addr constant [49 x i8] c"custom cumulative statistics property is invalid\00", align 1
@.str.14 = private unnamed_addr constant [86 x i8] c"Custom cumulative statistics require a shared memory size for fixed-numbered objects.\00", align 1
@.str.15 = private unnamed_addr constant [71 x i8] c"Custom cumulative statistics \22%s\22 already registered with the same ID.\00", align 1
@.str.16 = private unnamed_addr constant [61 x i8] c"Existing cumulative statistics with ID %u has the same name.\00", align 1
@.str.17 = private unnamed_addr constant [56 x i8] c"registered custom cumulative statistics \22%s\22 with ID %u\00", align 1

; Function Attrs: inlinehint nounwind uwtable
define internal zeroext i1 @pgstat_is_kind_custom(i32 noundef %0) #6 {
  %2 = alloca i32, align 4
  store i32 %0, ptr %2, align 4
  %3 = load i32, ptr %2, align 4
  %4 = icmp uge i32 %3, 128
  br i1 %4, label %5, label %8

5:                                                ; preds = %1
  %6 = load i32, ptr %2, align 4
  %7 = icmp ule i32 %6, 256
  br label %8

8:                                                ; preds = %5, %1
  %9 = phi i1 [ false, %1 ], [ %7, %5 ]
  ret i1 %9
}

; Function Attrs: nounwind uwtable
define dso_local void @pgstat_register_kind(i32 noundef %0, ptr noundef %1) #0 {
  %3 = alloca i32, align 4
  %4 = alloca ptr, align 8
  %5 = alloca i32, align 4
  %6 = alloca i32, align 4
  %7 = alloca i32, align 4
  %8 = alloca i32, align 4
  store i32 %0, ptr %3, align 4
  store ptr %1, ptr %4, align 8
  call void @llvm.lifetime.start.p0(i64 4, ptr %5) #12
  %9 = load i32, ptr %3, align 4
  %10 = sub i32 %9, 128
  store i32 %10, ptr %5, align 4
  %11 = load ptr, ptr %4, align 8
  %12 = getelementptr inbounds nuw %struct.PgStat_KindInfo, ptr %11, i32 0, i32 18
  %13 = load ptr, ptr %12, align 8
  %14 = icmp eq ptr %13, null
  br i1 %14, label %21, label %15

15:                                               ; preds = %2
  %16 = load ptr, ptr %4, align 8
  %17 = getelementptr inbounds nuw %struct.PgStat_KindInfo, ptr %16, i32 0, i32 18
  %18 = load ptr, ptr %17, align 8
  %19 = call i64 @strlen(ptr noundef %18) #15
  %20 = icmp eq i64 %19, 0
  br i1 %20, label %21, label %33

21:                                               ; preds = %15, %2
  br label %22

22:                                               ; preds = %21
  br i1 true, label %23, label %25

23:                                               ; preds = %22
  %24 = call zeroext i1 @errstart_cold(i32 noundef 21, ptr noundef null) #13
  br i1 %24, label %27, label %30

25:                                               ; preds = %22
  %26 = call zeroext i1 @errstart(i32 noundef 21, ptr noundef null)
  br i1 %26, label %27, label %30

27:                                               ; preds = %25, %23
  %28 = call i32 (ptr, ...) @errmsg(ptr noundef @.str.7)
  %29 = call i32 (ptr, ...) @errhint(ptr noundef @.str.8)
  call void @errfinish(ptr noundef @.str.2, i32 noundef 1490, ptr noundef @__func__.pgstat_register_kind)
  br label %30

30:                                               ; preds = %27, %25, %23
  unreachable

31:                                               ; No predecessors!
  br label %32

32:                                               ; preds = %31
  br label %33

33:                                               ; preds = %32, %15
  %34 = load i32, ptr %3, align 4
  %35 = call zeroext i1 @pgstat_is_kind_custom(i32 noundef %34)
  br i1 %35, label %49, label %36

36:                                               ; preds = %33
  br label %37

37:                                               ; preds = %36
  br i1 true, label %38, label %40

38:                                               ; preds = %37
  %39 = call zeroext i1 @errstart_cold(i32 noundef 21, ptr noundef null) #13
  br i1 %39, label %42, label %46

40:                                               ; preds = %37
  %41 = call zeroext i1 @errstart(i32 noundef 21, ptr noundef null)
  br i1 %41, label %42, label %46

42:                                               ; preds = %40, %38
  %43 = load i32, ptr %3, align 4
  %44 = call i32 (ptr, ...) @errmsg(ptr noundef @.str.9, i32 noundef %43)
  %45 = call i32 (ptr, ...) @errhint(ptr noundef @.str.10, i32 noundef 128, i32 noundef 256)
  call void @errfinish(ptr noundef @.str.2, i32 noundef 1495, ptr noundef @__func__.pgstat_register_kind)
  br label %46

46:                                               ; preds = %42, %40, %38
  unreachable

47:                                               ; No predecessors!
  br label %48

48:                                               ; preds = %47
  br label %49

49:                                               ; preds = %48, %33
  %50 = load i8, ptr @process_shared_preload_libraries_in_progress, align 1, !range !4, !noundef !5
  %51 = trunc i8 %50 to i1
  br i1 %51, label %68, label %52

52:                                               ; preds = %49
  br label %53

53:                                               ; preds = %52
  br i1 true, label %54, label %56

54:                                               ; preds = %53
  %55 = call zeroext i1 @errstart_cold(i32 noundef 21, ptr noundef null) #13
  br i1 %55, label %58, label %65

56:                                               ; preds = %53
  %57 = call zeroext i1 @errstart(i32 noundef 21, ptr noundef null)
  br i1 %57, label %58, label %65

58:                                               ; preds = %56, %54
  %59 = load ptr, ptr %4, align 8
  %60 = getelementptr inbounds nuw %struct.PgStat_KindInfo, ptr %59, i32 0, i32 18
  %61 = load ptr, ptr %60, align 8
  %62 = load i32, ptr %3, align 4
  %63 = call i32 (ptr, ...) @errmsg(ptr noundef @.str.11, ptr noundef %61, i32 noundef %62)
  %64 = call i32 (ptr, ...) @errdetail(ptr noundef @.str.12)
  call void @errfinish(ptr noundef @.str.2, i32 noundef 1500, ptr noundef @__func__.pgstat_register_kind)
  br label %65

65:                                               ; preds = %58, %56, %54
  unreachable

66:                                               ; No predecessors!
  br label %67

67:                                               ; preds = %66
  br label %68

68:                                               ; preds = %67, %49
  %69 = load ptr, ptr %4, align 8
  %70 = load i8, ptr %69, align 8
  %71 = and i8 %70, 1
  %72 = trunc i8 %71 to i1
  br i1 %72, label %73, label %91

73:                                               ; preds = %68
  %74 = load ptr, ptr %4, align 8
  %75 = getelementptr inbounds nuw %struct.PgStat_KindInfo, ptr %74, i32 0, i32 1
  %76 = load i32, ptr %75, align 4
  %77 = icmp eq i32 %76, 0
  br i1 %77, label %78, label %90

78:                                               ; preds = %73
  br label %79

79:                                               ; preds = %78
  br i1 true, label %80, label %82

80:                                               ; preds = %79
  %81 = call zeroext i1 @errstart_cold(i32 noundef 21, ptr noundef null) #13
  br i1 %81, label %84, label %87

82:                                               ; preds = %79
  %83 = call zeroext i1 @errstart(i32 noundef 21, ptr noundef null)
  br i1 %83, label %84, label %87

84:                                               ; preds = %82, %80
  %85 = call i32 (ptr, ...) @errmsg(ptr noundef @.str.13)
  %86 = call i32 (ptr, ...) @errhint(ptr noundef @.str.14)
  call void @errfinish(ptr noundef @.str.2, i32 noundef 1510, ptr noundef @__func__.pgstat_register_kind)
  br label %87

87:                                               ; preds = %84, %82, %80
  unreachable

88:                                               ; No predecessors!
  br label %89

89:                                               ; preds = %88
  br label %90

90:                                               ; preds = %89, %73
  br label %91

91:                                               ; preds = %90, %68
  %92 = load ptr, ptr @pgstat_kind_custom_infos, align 8
  %93 = icmp eq ptr %92, null
  br i1 %93, label %94, label %97

94:                                               ; preds = %91
  %95 = load ptr, ptr @TopMemoryContext, align 8
  %96 = call ptr @MemoryContextAllocZero(ptr noundef %95, i64 noundef 1032)
  store ptr %96, ptr @pgstat_kind_custom_infos, align 8
  br label %97

97:                                               ; preds = %94, %91
  %98 = load ptr, ptr @pgstat_kind_custom_infos, align 8
  %99 = load i32, ptr %5, align 4
  %100 = zext i32 %99 to i64
  %101 = getelementptr inbounds nuw ptr, ptr %98, i64 %100
  %102 = load ptr, ptr %101, align 8
  %103 = icmp ne ptr %102, null
  br i1 %103, label %104, label %136

104:                                              ; preds = %97
  %105 = load ptr, ptr @pgstat_kind_custom_infos, align 8
  %106 = load i32, ptr %5, align 4
  %107 = zext i32 %106 to i64
  %108 = getelementptr inbounds nuw ptr, ptr %105, i64 %107
  %109 = load ptr, ptr %108, align 8
  %110 = getelementptr inbounds nuw %struct.PgStat_KindInfo, ptr %109, i32 0, i32 18
  %111 = load ptr, ptr %110, align 8
  %112 = icmp ne ptr %111, null
  br i1 %112, label %113, label %136

113:                                              ; preds = %104
  br label %114

114:                                              ; preds = %113
  br i1 true, label %115, label %117

115:                                              ; preds = %114
  %116 = call zeroext i1 @errstart_cold(i32 noundef 21, ptr noundef null) #13
  br i1 %116, label %119, label %133

117:                                              ; preds = %114
  %118 = call zeroext i1 @errstart(i32 noundef 21, ptr noundef null)
  br i1 %118, label %119, label %133

119:                                              ; preds = %117, %115
  %120 = load ptr, ptr %4, align 8
  %121 = getelementptr inbounds nuw %struct.PgStat_KindInfo, ptr %120, i32 0, i32 18
  %122 = load ptr, ptr %121, align 8
  %123 = load i32, ptr %3, align 4
  %124 = call i32 (ptr, ...) @errmsg(ptr noundef @.str.11, ptr noundef %122, i32 noundef %123)
  %125 = load ptr, ptr @pgstat_kind_custom_infos, align 8
  %126 = load i32, ptr %5, align 4
  %127 = zext i32 %126 to i64
  %128 = getelementptr inbounds nuw ptr, ptr %125, i64 %127
  %129 = load ptr, ptr %128, align 8
  %130 = getelementptr inbounds nuw %struct.PgStat_KindInfo, ptr %129, i32 0, i32 18
  %131 = load ptr, ptr %130, align 8
  %132 = call i32 (ptr, ...) @errdetail(ptr noundef @.str.15, ptr noundef %131)
  call void @errfinish(ptr noundef @.str.2, i32 noundef 1528, ptr noundef @__func__.pgstat_register_kind)
  br label %133

133:                                              ; preds = %119, %117, %115
  unreachable

134:                                              ; No predecessors!
  br label %135

135:                                              ; preds = %134
  br label %136

136:                                              ; preds = %135, %104, %97
  call void @llvm.lifetime.start.p0(i64 4, ptr %6) #12
  store i32 128, ptr %6, align 4
  br label %137

137:                                              ; preds = %185, %136
  %138 = load i32, ptr %6, align 4
  %139 = icmp ule i32 %138, 256
  br i1 %139, label %141, label %140

140:                                              ; preds = %137
  store i32 12, ptr %7, align 4
  call void @llvm.lifetime.end.p0(i64 4, ptr %6) #12
  br label %188

141:                                              ; preds = %137
  call void @llvm.lifetime.start.p0(i64 4, ptr %8) #12
  %142 = load i32, ptr %6, align 4
  %143 = sub i32 %142, 128
  store i32 %143, ptr %8, align 4
  %144 = load ptr, ptr @pgstat_kind_custom_infos, align 8
  %145 = load i32, ptr %8, align 4
  %146 = zext i32 %145 to i64
  %147 = getelementptr inbounds nuw ptr, ptr %144, i64 %146
  %148 = load ptr, ptr %147, align 8
  %149 = icmp eq ptr %148, null
  br i1 %149, label %150, label %151

150:                                              ; preds = %141
  store i32 14, ptr %7, align 4
  br label %182

151:                                              ; preds = %141
  %152 = load ptr, ptr @pgstat_kind_custom_infos, align 8
  %153 = load i32, ptr %8, align 4
  %154 = zext i32 %153 to i64
  %155 = getelementptr inbounds nuw ptr, ptr %152, i64 %154
  %156 = load ptr, ptr %155, align 8
  %157 = getelementptr inbounds nuw %struct.PgStat_KindInfo, ptr %156, i32 0, i32 18
  %158 = load ptr, ptr %157, align 8
  %159 = load ptr, ptr %4, align 8
  %160 = getelementptr inbounds nuw %struct.PgStat_KindInfo, ptr %159, i32 0, i32 18
  %161 = load ptr, ptr %160, align 8
  %162 = call i32 @pg_strcasecmp(ptr noundef %158, ptr noundef %161)
  %163 = icmp ne i32 %162, 0
  br i1 %163, label %181, label %164

164:                                              ; preds = %151
  br label %165

165:                                              ; preds = %164
  br i1 true, label %166, label %168

166:                                              ; preds = %165
  %167 = call zeroext i1 @errstart_cold(i32 noundef 21, ptr noundef null) #13
  br i1 %167, label %170, label %178

168:                                              ; preds = %165
  %169 = call zeroext i1 @errstart(i32 noundef 21, ptr noundef null)
  br i1 %169, label %170, label %178

170:                                              ; preds = %168, %166
  %171 = load ptr, ptr %4, align 8
  %172 = getelementptr inbounds nuw %struct.PgStat_KindInfo, ptr %171, i32 0, i32 18
  %173 = load ptr, ptr %172, align 8
  %174 = load i32, ptr %3, align 4
  %175 = call i32 (ptr, ...) @errmsg(ptr noundef @.str.11, ptr noundef %173, i32 noundef %174)
  %176 = load i32, ptr %6, align 4
  %177 = call i32 (ptr, ...) @errdetail(ptr noundef @.str.16, i32 noundef %176)
  call void @errfinish(ptr noundef @.str.2, i32 noundef 1540, ptr noundef @__func__.pgstat_register_kind)
  br label %178

178:                                              ; preds = %170, %168, %166
  unreachable

179:                                              ; No predecessors!
  br label %180

180:                                              ; preds = %179
  br label %181

181:                                              ; preds = %180, %151
  store i32 0, ptr %7, align 4
  br label %182

182:                                              ; preds = %181, %150
  call void @llvm.lifetime.end.p0(i64 4, ptr %8) #12
  %183 = load i32, ptr %7, align 4
  switch i32 %183, label %208 [
    i32 0, label %184
    i32 14, label %185
  ]

184:                                              ; preds = %182
  br label %185

185:                                              ; preds = %184, %182
  %186 = load i32, ptr %6, align 4
  %187 = add i32 %186, 1
  store i32 %187, ptr %6, align 4
  br label %137, !llvm.loop !19

188:                                              ; preds = %140
  %189 = load ptr, ptr %4, align 8
  %190 = load ptr, ptr @pgstat_kind_custom_infos, align 8
  %191 = load i32, ptr %5, align 4
  %192 = zext i32 %191 to i64
  %193 = getelementptr inbounds nuw ptr, ptr %190, i64 %192
  store ptr %189, ptr %193, align 8
  br label %194

194:                                              ; preds = %188
  br i1 false, label %195, label %197

195:                                              ; preds = %194
  %196 = call zeroext i1 @errstart_cold(i32 noundef 15, ptr noundef null) #13
  br i1 %196, label %199, label %205

197:                                              ; preds = %194
  %198 = call zeroext i1 @errstart(i32 noundef 15, ptr noundef null)
  br i1 %198, label %199, label %205

199:                                              ; preds = %197, %195
  %200 = load ptr, ptr %4, align 8
  %201 = getelementptr inbounds nuw %struct.PgStat_KindInfo, ptr %200, i32 0, i32 18
  %202 = load ptr, ptr %201, align 8
  %203 = load i32, ptr %3, align 4
  %204 = call i32 (ptr, ...) @errmsg(ptr noundef @.str.17, ptr noundef %202, i32 noundef %203)
  call void @errfinish(ptr noundef @.str.2, i32 noundef 1547, ptr noundef @__func__.pgstat_register_kind)
  br label %205

205:                                              ; preds = %199, %197, %195
  br label %206

206:                                              ; preds = %205
  br label %207

207:                                              ; preds = %206
  call void @llvm.lifetime.end.p0(i64 4, ptr %5) #12
  ret void

208:                                              ; preds = %182
  unreachable
}