; Function Attrs: nounwind uwtable
define dso_local void @pgstat_register_kind(i32 noundef %0, ptr noundef %1) local_unnamed_addr #0 {
  %3 = add i32 %0, -128
  %4 = getelementptr inbounds nuw i8, ptr %1, i64 120
  %5 = load ptr, ptr %4, align 8
  %6 = icmp eq ptr %5, null
  br i1 %6, label %9, label %7

7:                                                ; preds = %2
  %char0 = load i8, ptr %5, align 1
  %8 = icmp eq i8 %char0, 0
  br i1 %8, label %9, label %13

9:                                                ; preds = %7, %2
  %10 = tail call zeroext i1 @errstart_cold(i32 noundef 21, ptr noundef null) #19
  tail call void @llvm.assume(i1 %10)
  %11 = tail call i32 (ptr, ...) @errmsg(ptr noundef nonnull @.str.7) #17
  %12 = tail call i32 (ptr, ...) @errhint(ptr noundef nonnull @.str.8) #17
  tail call void @errfinish(ptr noundef nonnull @.str.2, i32 noundef 1490, ptr noundef nonnull @__func__.pgstat_register_kind) #17
  unreachable

13:                                               ; preds = %7
  %14 = icmp ult i32 %3, 129
  br i1 %14, label %19, label %15

15:                                               ; preds = %13
  %16 = tail call zeroext i1 @errstart_cold(i32 noundef 21, ptr noundef null) #19
  tail call void @llvm.assume(i1 %16)
  %17 = tail call i32 (ptr, ...) @errmsg(ptr noundef nonnull @.str.9, i32 noundef %0) #17
  %18 = tail call i32 (ptr, ...) @errhint(ptr noundef nonnull @.str.10, i32 noundef 128, i32 noundef 256) #17
  tail call void @errfinish(ptr noundef nonnull @.str.2, i32 noundef 1495, ptr noundef nonnull @__func__.pgstat_register_kind) #17
  unreachable

19:                                               ; preds = %13
  %20 = load i8, ptr @process_shared_preload_libraries_in_progress, align 1, !range !8, !noundef !7
  %21 = trunc nuw i8 %20 to i1
  br i1 %21, label %27, label %22

22:                                               ; preds = %19
  %23 = tail call zeroext i1 @errstart_cold(i32 noundef 21, ptr noundef null) #19
  tail call void @llvm.assume(i1 %23)
  %24 = load ptr, ptr %4, align 8
  %25 = tail call i32 (ptr, ...) @errmsg(ptr noundef nonnull @.str.11, ptr noundef %24, i32 noundef %0) #17
  %26 = tail call i32 (ptr, ...) @errdetail(ptr noundef nonnull @.str.12) #17
  tail call void @errfinish(ptr noundef nonnull @.str.2, i32 noundef 1500, ptr noundef nonnull @__func__.pgstat_register_kind) #17
  unreachable

27:                                               ; preds = %19
  %28 = load i8, ptr %1, align 8
  %29 = trunc i8 %28 to i1
  br i1 %29, label %30, label %38

30:                                               ; preds = %27
  %31 = getelementptr inbounds nuw i8, ptr %1, i64 4
  %32 = load i32, ptr %31, align 4
  %33 = icmp eq i32 %32, 0
  br i1 %33, label %34, label %38

34:                                               ; preds = %30
  %35 = tail call zeroext i1 @errstart_cold(i32 noundef 21, ptr noundef null) #19
  tail call void @llvm.assume(i1 %35)
  %36 = tail call i32 (ptr, ...) @errmsg(ptr noundef nonnull @.str.13) #17
  %37 = tail call i32 (ptr, ...) @errhint(ptr noundef nonnull @.str.14) #17
  tail call void @errfinish(ptr noundef nonnull @.str.2, i32 noundef 1510, ptr noundef nonnull @__func__.pgstat_register_kind) #17
  unreachable

38:                                               ; preds = %30, %27
  %39 = load ptr, ptr @pgstat_kind_custom_infos, align 8
  %40 = icmp eq ptr %39, null
  br i1 %40, label %41, label %44

41:                                               ; preds = %38
  %42 = load ptr, ptr @TopMemoryContext, align 8
  %43 = tail call ptr @MemoryContextAllocZero(ptr noundef %42, i64 noundef 1032) #17
  store ptr %43, ptr @pgstat_kind_custom_infos, align 8
  br label %44

44:                                               ; preds = %41, %38
  %.pre35 = phi ptr [ %43, %41 ], [ %39, %38 ]
  %45 = zext nneg i32 %3 to i64
  %46 = getelementptr inbounds nuw ptr, ptr %.pre35, i64 %45
  %47 = load ptr, ptr %46, align 8
  %.not = icmp eq ptr %47, null
  br i1 %.not, label %.preheader, label %48

.preheader:                                       ; preds = %48, %44
  br label %64

48:                                               ; preds = %44
  %49 = getelementptr inbounds nuw i8, ptr %47, i64 120
  %50 = load ptr, ptr %49, align 8
  %.not29 = icmp eq ptr %50, null
  br i1 %.not29, label %.preheader, label %51

51:                                               ; preds = %48
  %52 = tail call zeroext i1 @errstart_cold(i32 noundef 21, ptr noundef null) #19
  tail call void @llvm.assume(i1 %52)
  %53 = load ptr, ptr %4, align 8
  %54 = tail call i32 (ptr, ...) @errmsg(ptr noundef nonnull @.str.11, ptr noundef %53, i32 noundef %0) #17
  %55 = load ptr, ptr @pgstat_kind_custom_infos, align 8
  %56 = getelementptr inbounds nuw ptr, ptr %55, i64 %45
  %57 = load ptr, ptr %56, align 8
  %58 = getelementptr inbounds nuw i8, ptr %57, i64 120
  %59 = load ptr, ptr %58, align 8
  %60 = tail call i32 (ptr, ...) @errdetail(ptr noundef nonnull @.str.15, ptr noundef %59) #17
  tail call void @errfinish(ptr noundef nonnull @.str.2, i32 noundef 1528, ptr noundef nonnull @__func__.pgstat_register_kind) #17
  unreachable

61:                                               ; preds = %81
  %62 = getelementptr inbounds nuw ptr, ptr %82, i64 %45
  store ptr %1, ptr %62, align 8
  %63 = tail call zeroext i1 @errstart(i32 noundef 15, ptr noundef null) #17
  br i1 %63, label %83, label %86

64:                                               ; preds = %.preheader, %81
  %65 = phi ptr [ %82, %81 ], [ %.pre35, %.preheader ]
  %indvars.iv = phi i64 [ %indvars.iv.next, %81 ], [ 128, %.preheader ]
  %66 = getelementptr ptr, ptr %65, i64 %indvars.iv
  %67 = getelementptr i8, ptr %66, i64 -1024
  %68 = load ptr, ptr %67, align 8
  %69 = icmp eq ptr %68, null
  br i1 %69, label %81, label %70

70:                                               ; preds = %64
  %71 = getelementptr inbounds nuw i8, ptr %68, i64 120
  %72 = load ptr, ptr %71, align 8
  %73 = load ptr, ptr %4, align 8
  %74 = tail call i32 @pg_strcasecmp(ptr noundef %72, ptr noundef %73) #17
  %.not30 = icmp eq i32 %74, 0
  %.pre = load ptr, ptr @pgstat_kind_custom_infos, align 8
  br i1 %.not30, label %75, label %81

75:                                               ; preds = %70
  %76 = trunc nuw nsw i64 %indvars.iv to i32
  %77 = tail call zeroext i1 @errstart_cold(i32 noundef 21, ptr noundef null) #19
  tail call void @llvm.assume(i1 %77)
  %78 = load ptr, ptr %4, align 8
  %79 = tail call i32 (ptr, ...) @errmsg(ptr noundef nonnull @.str.11, ptr noundef %78, i32 noundef %0) #17
  %80 = tail call i32 (ptr, ...) @errdetail(ptr noundef nonnull @.str.16, i32 noundef %76) #17
  tail call void @errfinish(ptr noundef nonnull @.str.2, i32 noundef 1540, ptr noundef nonnull @__func__.pgstat_register_kind) #17
  unreachable

81:                                               ; preds = %70, %64
  %82 = phi ptr [ %.pre, %70 ], [ %65, %64 ]
  %indvars.iv.next = add nuw nsw i64 %indvars.iv, 1
  %exitcond.not = icmp eq i64 %indvars.iv.next, 257
  br i1 %exitcond.not, label %61, label %64, !llvm.loop !24

83:                                               ; preds = %61
  %84 = load ptr, ptr %4, align 8
  %85 = tail call i32 (ptr, ...) @errmsg(ptr noundef nonnull @.str.17, ptr noundef %84, i32 noundef %0) #17
  tail call void @errfinish(ptr noundef nonnull @.str.2, i32 noundef 1547, ptr noundef nonnull @__func__.pgstat_register_kind) #17
  br label %86

86:                                               ; preds = %83, %61
  ret void
}